; Function Attrs: nounwind uwtable
define void @Gia_ManUnrollDup_rec(ptr noundef %0, ptr noundef %1, i32 noundef %2) local_unnamed_addr #0 {
  %4 = getelementptr inbounds nuw i8, ptr %1, i64 8
  %5 = load i32, ptr %4, align 4, !tbaa !3
  %.not = icmp eq i32 %5, -1
  br i1 %.not, label %6, label %70

6:                                                ; preds = %3
  %.val = load i64, ptr %1, align 4
  %7 = and i64 %.val, 2684354559
  %narrow.i.not = icmp eq i64 %7, 2684354559
  br i1 %narrow.i.not, label %8, label %10

8:                                                ; preds = %6
  %9 = tail call fastcc i32 @Gia_ManAppendCi(ptr noundef %0)
  br label %.sink.split

10:                                               ; preds = %6
  %11 = and i64 %.val, 2147483648
  %.not.i = icmp ne i64 %11, 0
  %12 = and i64 %.val, 536870911
  %13 = icmp ne i64 %12, 536870911
  %narrow.i36 = and i1 %.not.i, %13
  br i1 %narrow.i36, label %14, label %30

14:                                               ; preds = %10
  %15 = sub nsw i64 0, %12
  %16 = getelementptr inbounds %struct.Gia_Obj_t_, ptr %1, i64 %15
  %17 = trunc i64 %.val to i32
  %18 = and i32 %17, 536870911
  %19 = sub nsw i32 %2, %18
  tail call void @Gia_ManUnrollDup_rec(ptr noundef %0, ptr noundef nonnull %16, i32 noundef %19)
  %20 = load i64, ptr %1, align 4
  %21 = and i64 %20, 536870911
  %22 = sub nsw i64 0, %21
  %23 = getelementptr inbounds %struct.Gia_Obj_t_, ptr %1, i64 %22, i32 1
  %24 = load i32, ptr %23, align 4, !tbaa !3
  %25 = trunc i64 %20 to i32
  %26 = lshr i32 %25, 29
  %27 = and i32 %26, 1
  %28 = xor i32 %27, %24
  %29 = tail call fastcc i32 @Gia_ManAppendCo(ptr noundef %0, i32 noundef %28)
  br label %.sink.split

30:                                               ; preds = %10
  %.not.i37 = icmp eq i64 %11, 0
  %narrow.i38 = and i1 %.not.i37, %13
  br i1 %narrow.i38, label %31, label %66

31:                                               ; preds = %30
  %32 = sub nsw i64 0, %12
  %33 = getelementptr inbounds %struct.Gia_Obj_t_, ptr %1, i64 %32
  %34 = trunc i64 %.val to i32
  %35 = and i32 %34, 536870911
  %36 = sub nsw i32 %2, %35
  tail call void @Gia_ManUnrollDup_rec(ptr noundef %0, ptr noundef nonnull %33, i32 noundef %36)
  %37 = load i64, ptr %1, align 4
  %38 = lshr i64 %37, 32
  %39 = and i64 %38, 536870911
  %40 = sub nsw i64 0, %39
  %41 = getelementptr inbounds %struct.Gia_Obj_t_, ptr %1, i64 %40
  %42 = trunc nuw i64 %38 to i32
  %43 = and i32 %42, 536870911
  %44 = sub nsw i32 %2, %43
  tail call void @Gia_ManUnrollDup_rec(ptr noundef %0, ptr noundef nonnull %41, i32 noundef %44)
  %45 = load i64, ptr %1, align 4
  %46 = and i64 %45, 536870911
  %47 = sub nsw i64 0, %46
  %48 = getelementptr inbounds %struct.Gia_Obj_t_, ptr %1, i64 %47, i32 1
  %49 = load i32, ptr %48, align 4, !tbaa !3
  %50 = trunc i64 %45 to i32
  %51 = lshr i32 %50, 29
  %52 = and i32 %51, 1
  %53 = xor i32 %52, %49
  %54 = lshr i64 %45, 32
  %55 = and i64 %54, 536870911
  %56 = sub nsw i64 0, %55
  %57 = getelementptr inbounds %struct.Gia_Obj_t_, ptr %1, i64 %56, i32 1
  %58 = load i32, ptr %57, align 4, !tbaa !3
  %59 = lshr i64 %45, 61
  %60 = trunc nuw nsw i64 %59 to i32
  %61 = and i32 %60, 1
  %62 = xor i32 %61, %58
  %63 = tail call fastcc i32 @Gia_ManAppendAnd(ptr noundef %0, i32 noundef %53, i32 noundef %62)
  br label %.sink.split

.sink.split:                                      ; preds = %8, %31, %14
  %.sink = phi i32 [ %29, %14 ], [ %63, %31 ], [ %9, %8 ]
  store i32 %.sink, ptr %4, align 4, !tbaa !3
  %64 = ashr i32 %.sink, 1
  %65 = sext i32 %64 to i64
  br label %66

66:                                               ; preds = %.sink.split, %30
  %67 = phi i64 [ -1, %30 ], [ %65, %.sink.split ]
  %68 = getelementptr i8, ptr %0, i64 32
  %.val30 = load ptr, ptr %68, align 8, !tbaa !8
  %69 = getelementptr inbounds %struct.Gia_Obj_t_, ptr %.val30, i64 %67, i32 1
  store i32 %2, ptr %69, align 4, !tbaa !3
  br label %70

70:                                               ; preds = %3, %66
  ret void
}